target datalayout = "e-m:e-p270:32:32-p271:32:32-p272:64:64-i64:64-i128:128-f80:128-n8:16:32:64-S128"
target triple = "x86_64-pc-linux-gnu"

%union.SourceSpan = type { i64 }
%struct.Type_ = type { i32, ptr, ptr, ptr, %union.anon.85, ptr, ptr, %union.anon.87 }
%union.anon.85 = type { ptr }
%union.anon.87 = type { %struct.TypeFunction }
%struct.TypeFunction = type { ptr, ptr, ptr }

@.str.5 = private unnamed_addr constant [55 x i8] c"The use of 'void' as a variable type is not permitted.\00", align 1
@.str.6 = private unnamed_addr constant [50 x i8] c"The variable cannot have an compile time %s type.\00", align 1
@type_wildcard_optional = external global ptr, align 8
@.str.7 = private unnamed_addr constant [72 x i8] c"The use of 'void!' as a variable type is not permitted, use %s instead.\00", align 1
@type_anyfault = external global ptr, align 8
@type_void = external global ptr, align 8

; Function Attrs: nounwind uwtable
define dso_local zeroext i1 @sema_analyse_decl_type(ptr noundef %0, ptr noundef %1, i64 %2) #0 {
  %4 = alloca ptr, align 8
  %5 = alloca i1, align 1
  %6 = alloca ptr, align 8
  %7 = alloca i32, align 4
  %8 = alloca i1, align 1
  %9 = alloca %union.SourceSpan, align 8
  %10 = alloca ptr, align 8
  %11 = alloca ptr, align 8
  %12 = getelementptr inbounds %union.SourceSpan, ptr %9, i32 0, i32 0
  store i64 %2, ptr %12, align 8
  store ptr %0, ptr %10, align 8
  store ptr %1, ptr %11, align 8
  %13 = load ptr, ptr %11, align 8
  %14 = getelementptr inbounds %struct.Type_, ptr %13, i32 0, i32 0
  %15 = load i32, ptr %14, align 8
  switch i32 %15, label %24 [
    i32 1, label %16
    i32 39, label %19
    i32 43, label %19
    i32 42, label %19
  ]

16:                                               ; preds = %3
  %17 = getelementptr inbounds %union.SourceSpan, ptr %9, i32 0, i32 0
  %18 = load i64, ptr %17, align 8
  call void (i64, ptr, ...) @sema_error_at(i64 %18, ptr noundef @.str.5)
  store i1 false, ptr %8, align 1
  br label %65

19:                                               ; preds = %3, %3, %3
  %20 = load ptr, ptr %11, align 8
  %21 = call ptr @type_quoted_error_string(ptr noundef %20)
  %22 = getelementptr inbounds %union.SourceSpan, ptr %9, i32 0, i32 0
  %23 = load i64, ptr %22, align 8
  call void (i64, ptr, ...) @sema_error_at(i64 %23, ptr noundef @.str.6, ptr noundef %21)
  store i1 false, ptr %8, align 1
  br label %65

24:                                               ; preds = %3
  br label %25

25:                                               ; preds = %24
  %26 = load ptr, ptr %11, align 8
  store ptr %26, ptr %6, align 8
  %27 = load ptr, ptr %6, align 8
  %28 = icmp ne ptr %27, null
  br i1 %28, label %30, label %29

29:                                               ; preds = %25
  store i1 false, ptr %5, align 1
  br label %43

30:                                               ; preds = %25
  %31 = load ptr, ptr %6, align 8
  %32 = load i32, ptr %31, align 8
  store i32 %32, ptr %7, align 4
  %33 = load i32, ptr %7, align 4
  %34 = icmp eq i32 %33, 31
  br i1 %34, label %35, label %40

35:                                               ; preds = %30
  %36 = load ptr, ptr %6, align 8
  %37 = getelementptr inbounds %struct.Type_, ptr %36, i32 0, i32 1
  %38 = load ptr, ptr %37, align 8
  %39 = load i32, ptr %38, align 8
  store i32 %39, ptr %7, align 4
  br label %40

40:                                               ; preds = %35, %30
  %41 = load i32, ptr %7, align 4
  %42 = icmp eq i32 %41, 40
  store i1 %42, ptr %5, align 1
  br label %43

43:                                               ; preds = %40, %29
  %44 = load i1, ptr %5, align 1
  br i1 %44, label %46, label %45

45:                                               ; preds = %43
  store i1 true, ptr %8, align 1
  br label %65

46:                                               ; preds = %43
  %47 = load ptr, ptr %11, align 8
  %48 = load ptr, ptr @type_wildcard_optional, align 8
  %49 = icmp eq ptr %47, %48
  br i1 %49, label %59, label %50

50:                                               ; preds = %46
  %51 = load ptr, ptr %11, align 8
  %52 = getelementptr inbounds %struct.Type_, ptr %51, i32 0, i32 7
  %53 = load ptr, ptr %52, align 8
  store ptr %53, ptr %4, align 8
  %54 = load ptr, ptr %4, align 8
  %55 = getelementptr inbounds %struct.Type_, ptr %54, i32 0, i32 1
  %56 = load ptr, ptr %55, align 8
  %57 = load ptr, ptr @type_void, align 8
  %58 = icmp eq ptr %56, %57
  br i1 %58, label %59, label %64

59:                                               ; preds = %50, %46
  %60 = load ptr, ptr @type_anyfault, align 8
  %61 = call ptr @type_quoted_error_string(ptr noundef %60)
  %62 = getelementptr inbounds %union.SourceSpan, ptr %9, i32 0, i32 0
  %63 = load i64, ptr %62, align 8
  call void (i64, ptr, ...) @sema_error_at(i64 %63, ptr noundef @.str.7, ptr noundef %61)
  store i1 false, ptr %8, align 1
  br label %65

64:                                               ; preds = %50
  store i1 true, ptr %8, align 1
  br label %65

65:                                               ; preds = %64, %59, %45, %19, %16
  %66 = load i1, ptr %8, align 1
  ret i1 %66
}