; Function Attrs: nounwind uwtable
define dso_local noundef zeroext i1 @sema_analyse_decl_type(ptr nocapture readnone %0, ptr noundef %1, i64 %2) local_unnamed_addr #0 {
  %4 = load i32, ptr %1, align 8
  switch i32 %4, label %12 [
    i32 1, label %5
    i32 39, label %6
    i32 43, label %6
    i32 42, label %6
    i32 31, label %8
  ]

5:                                                ; preds = %3
  tail call void (i64, ptr, ...) @sema_error_at(i64 %2, ptr noundef nonnull @.str.5) #10
  br label %27

6:                                                ; preds = %3, %3, %3
  %7 = tail call ptr @type_quoted_error_string(ptr noundef nonnull %1) #10
  tail call void (i64, ptr, ...) @sema_error_at(i64 %2, ptr noundef nonnull @.str.6, ptr noundef %7) #10
  br label %27

8:                                                ; preds = %3
  %9 = getelementptr inbounds i8, ptr %1, i64 8
  %10 = load ptr, ptr %9, align 8
  %11 = load i32, ptr %10, align 8
  br label %12

12:                                               ; preds = %8, %3
  %.014 = phi i32 [ %11, %8 ], [ %4, %3 ]
  %13 = icmp eq i32 %.014, 40
  br i1 %13, label %14, label %27

14:                                               ; preds = %12
  %15 = load ptr, ptr @type_wildcard_optional, align 8
  %16 = icmp eq ptr %15, %1
  br i1 %16, label %24, label %17

17:                                               ; preds = %14
  %18 = getelementptr inbounds i8, ptr %1, i64 56
  %19 = load ptr, ptr %18, align 8
  %20 = getelementptr inbounds i8, ptr %19, i64 8
  %21 = load ptr, ptr %20, align 8
  %22 = load ptr, ptr @type_void, align 8
  %23 = icmp eq ptr %21, %22
  br i1 %23, label %24, label %27

24:                                               ; preds = %17, %14
  %25 = load ptr, ptr @type_anyfault, align 8
  %26 = tail call ptr @type_quoted_error_string(ptr noundef %25) #10
  tail call void (i64, ptr, ...) @sema_error_at(i64 %2, ptr noundef nonnull @.str.7, ptr noundef %26) #10
  br label %27

27:                                               ; preds = %17, %12, %24, %6, %5
  %.015 = phi i1 [ false, %24 ], [ false, %6 ], [ false, %5 ], [ true, %12 ], [ true, %17 ]
  ret i1 %.015
}